target datalayout = "e-m:e-p270:32:32-p271:32:32-p272:64:64-i64:64-i128:128-f80:128-n8:16:32:64-S128"
target triple = "x86_64-pc-linux-gnu"

@.str.4 = private unnamed_addr constant [2 x i8] c"\0A\00", align 1
@.str.5 = private unnamed_addr constant [72 x i8] c"    box_derive [-base <base_module>] [-naming_attr <attr>] [selection]\0A\00", align 1
@.str.6 = private unnamed_addr constant [82 x i8] c"As part of the assembly of the design hierarchy done by the 'hierarchy' command,\0A\00", align 1
@.str.7 = private unnamed_addr constant [81 x i8] c"specializations of parametric modules are derived on demand: for each choice of\0A\00", align 1
@.str.8 = private unnamed_addr constant [78 x i8] c"parameter values appearing in the design, a copy of the parametric module is\0A\00", align 1
@.str.9 = private unnamed_addr constant [46 x i8] c"derived which is specialized to that choice.\0A\00", align 1
@.str.10 = private unnamed_addr constant [83 x i8] c"This derivation process ignores blackboxes and whiteboxes (boxes). To supplement,\0A\00", align 1
@.str.11 = private unnamed_addr constant [82 x i8] c"this 'box_derive' command can be used to request the derivation of modules based\0A\00", align 1
@.str.12 = private unnamed_addr constant [77 x i8] c"on box instances appearing in the design, which is desirable in certain use\0A\00", align 1
@.str.13 = private unnamed_addr constant [79 x i8] c"cases. Only the selected cells are considered as the instances that steer the\0A\00", align 1
@.str.14 = private unnamed_addr constant [21 x i8] c"derivation process.\0A\00", align 1
@.str.15 = private unnamed_addr constant [25 x i8] c"    -base <base_module>\0A\00", align 1
@.str.16 = private unnamed_addr constant [78 x i8] c"        instead of deriving the module that directly corresponds to each box\0A\00", align 1
@.str.17 = private unnamed_addr constant [81 x i8] c"        instance, derive a specialization of <base_module> (this option applies\0A\00", align 1
@.str.18 = private unnamed_addr constant [36 x i8] c"        to all selected box cells)\0A\00", align 1
@.str.19 = private unnamed_addr constant [25 x i8] c"    -naming_attr <attr>\0A\00", align 1
@.str.20 = private unnamed_addr constant [81 x i8] c"        once a specialization is derived, use the value of the module attribute\0A\00", align 1
@.str.21 = private unnamed_addr constant [77 x i8] c"        <attr> for a name which should be used for the derived module (this\0A\00", align 1
@.str.22 = private unnamed_addr constant [81 x i8] c"        replaces the internal Yosys naming scheme in which the names of derived\0A\00", align 1
@.str.23 = private unnamed_addr constant [41 x i8] c"        modules start with '$paramod$')\0A\00", align 1

; Function Attrs: mustprogress uwtable
define internal void @_ZN12_GLOBAL__N_113BoxDerivePass4helpEv(ptr noundef nonnull align 8 dereferenceable(104) %0) unnamed_addr #4 align 2 {
  %2 = alloca ptr, align 8
  store ptr %0, ptr %2, align 8, !tbaa !6
  call void (ptr, ...) @_ZN5Yosys3logEPKcz(ptr noundef @.str.4)
  call void (ptr, ...) @_ZN5Yosys3logEPKcz(ptr noundef @.str.5)
  call void (ptr, ...) @_ZN5Yosys3logEPKcz(ptr noundef @.str.4)
  call void (ptr, ...) @_ZN5Yosys3logEPKcz(ptr noundef @.str.6)
  call void (ptr, ...) @_ZN5Yosys3logEPKcz(ptr noundef @.str.7)
  call void (ptr, ...) @_ZN5Yosys3logEPKcz(ptr noundef @.str.8)
  call void (ptr, ...) @_ZN5Yosys3logEPKcz(ptr noundef @.str.9)
  call void (ptr, ...) @_ZN5Yosys3logEPKcz(ptr noundef @.str.4)
  call void (ptr, ...) @_ZN5Yosys3logEPKcz(ptr noundef @.str.10)
  call void (ptr, ...) @_ZN5Yosys3logEPKcz(ptr noundef @.str.11)
  call void (ptr, ...) @_ZN5Yosys3logEPKcz(ptr noundef @.str.12)
  call void (ptr, ...) @_ZN5Yosys3logEPKcz(ptr noundef @.str.13)
  call void (ptr, ...) @_ZN5Yosys3logEPKcz(ptr noundef @.str.14)
  call void (ptr, ...) @_ZN5Yosys3logEPKcz(ptr noundef @.str.4)
  call void (ptr, ...) @_ZN5Yosys3logEPKcz(ptr noundef @.str.15)
  call void (ptr, ...) @_ZN5Yosys3logEPKcz(ptr noundef @.str.16)
  call void (ptr, ...) @_ZN5Yosys3logEPKcz(ptr noundef @.str.17)
  call void (ptr, ...) @_ZN5Yosys3logEPKcz(ptr noundef @.str.18)
  call void (ptr, ...) @_ZN5Yosys3logEPKcz(ptr noundef @.str.4)
  call void (ptr, ...) @_ZN5Yosys3logEPKcz(ptr noundef @.str.19)
  call void (ptr, ...) @_ZN5Yosys3logEPKcz(ptr noundef @.str.20)
  call void (ptr, ...) @_ZN5Yosys3logEPKcz(ptr noundef @.str.21)
  call void (ptr, ...) @_ZN5Yosys3logEPKcz(ptr noundef @.str.22)
  call void (ptr, ...) @_ZN5Yosys3logEPKcz(ptr noundef @.str.23)
  call void (ptr, ...) @_ZN5Yosys3logEPKcz(ptr noundef @.str.4)
  ret void
}